target datalayout = "e-m:e-p270:32:32-p271:32:32-p272:64:64-i64:64-i128:128-f80:128-n8:16:32:64-S128"
target triple = "x86_64-pc-linux-gnu"

%struct.H5FL_reg_head_t = type { i8, i32, i32, ptr, i64, ptr }
%struct.H5O_mdci_t = type { i64, i64 }

@.str.1 = private unnamed_addr constant [108 x i8] c"generated/home/dtcxzyw/WorkSpace/Projects/compilers/llvm-opt-benchmark/bench/hdf5/hdf5/src/H5Ocache_image.c\00", align 1
@__func__.H5O__mdci_decode = private unnamed_addr constant [17 x i8] c"H5O__mdci_decode\00", align 1
@H5E_OHDR_g = external global i64, align 8
@H5E_OVERFLOW_g = external global i64, align 8
@.str.2 = private unnamed_addr constant [43 x i8] c"ran off end of input buffer while decoding\00", align 1
@H5E_CANTLOAD_g = external global i64, align 8
@.str.3 = private unnamed_addr constant [31 x i8] c"bad version number for message\00", align 1
@H5_H5O_mdci_t_reg_free_list = internal global %struct.H5FL_reg_head_t { i8 0, i32 0, i32 0, ptr @.str.5, i64 16, ptr null }, align 8
@H5E_RESOURCE_g = external global i64, align 8
@H5E_NOSPACE_g = external global i64, align 8
@.str.4 = private unnamed_addr constant [58 x i8] c"memory allocation failed for metadata cache image message\00", align 1

; Function Attrs: nounwind uwtable
define internal ptr @H5O__mdci_decode(ptr noundef %0, ptr noundef %1, i32 noundef %2, ptr noundef %3, i64 noundef %4, ptr noundef %5) #0 {
  %7 = alloca ptr, align 8
  %8 = alloca ptr, align 8
  %9 = alloca i32, align 4
  %10 = alloca ptr, align 8
  %11 = alloca i64, align 8
  %12 = alloca ptr, align 8
  %13 = alloca ptr, align 8
  %14 = alloca ptr, align 8
  %15 = alloca ptr, align 8
  %16 = alloca i8, align 1
  %17 = alloca i64, align 8
  store ptr %0, ptr %7, align 8
  store ptr %1, ptr %8, align 8
  store i32 %2, ptr %9, align 4
  store ptr %3, ptr %10, align 8
  store i64 %4, ptr %11, align 8
  store ptr %5, ptr %12, align 8
  store ptr null, ptr %13, align 8
  %18 = load ptr, ptr %12, align 8
  %19 = load i64, ptr %11, align 8
  %20 = getelementptr inbounds i8, ptr %18, i64 %19
  %21 = getelementptr inbounds i8, ptr %20, i64 -1
  store ptr %21, ptr %14, align 8
  store ptr null, ptr %15, align 8
  store i8 0, ptr %16, align 1
  %22 = load ptr, ptr %12, align 8
  %23 = load ptr, ptr %14, align 8
  %24 = icmp ugt ptr %22, %23
  br i1 %24, label %33, label %25

25:                                               ; preds = %6
  %26 = load ptr, ptr %14, align 8
  %27 = load ptr, ptr %12, align 8
  %28 = ptrtoint ptr %26 to i64
  %29 = ptrtoint ptr %27 to i64
  %30 = sub i64 %28, %29
  %31 = add nsw i64 %30, 1
  %32 = icmp ugt i64 1, %31
  br i1 %32, label %33, label %48

33:                                               ; preds = %25, %6
  br label %34

34:                                               ; preds = %33
  br label %35

35:                                               ; preds = %34
  br label %36

36:                                               ; preds = %35
  %37 = load i64, ptr @H5E_OHDR_g, align 8
  %38 = load i64, ptr @H5E_OVERFLOW_g, align 8
  %39 = call i32 (ptr, ptr, i32, i64, i64, ptr, ...) @H5E_printf_stack(ptr noundef @.str.1, ptr noundef @__func__.H5O__mdci_decode, i32 noundef 102, i64 noundef %37, i64 noundef %38, ptr noundef @.str.2)
  br label %40

40:                                               ; preds = %36
  store i8 1, ptr %16, align 1
  %41 = load i8, ptr %16, align 1
  %42 = trunc i8 %41 to i1
  %43 = zext i1 %42 to i8
  store i8 %43, ptr %16, align 1
  br label %44

44:                                               ; preds = %40
  br label %45

45:                                               ; preds = %44
  store ptr null, ptr %15, align 8
  br label %291

46:                                               ; No predecessors!
  br label %47

47:                                               ; preds = %46
  br label %48

48:                                               ; preds = %47, %25
  %49 = load ptr, ptr %12, align 8
  %50 = getelementptr inbounds i8, ptr %49, i32 1
  store ptr %50, ptr %12, align 8
  %51 = load i8, ptr %49, align 1
  %52 = zext i8 %51 to i32
  %53 = icmp ne i32 %52, 0
  br i1 %53, label %54, label %69

54:                                               ; preds = %48
  br label %55

55:                                               ; preds = %54
  br label %56

56:                                               ; preds = %55
  br label %57

57:                                               ; preds = %56
  %58 = load i64, ptr @H5E_OHDR_g, align 8
  %59 = load i64, ptr @H5E_CANTLOAD_g, align 8
  %60 = call i32 (ptr, ptr, i32, i64, i64, ptr, ...) @H5E_printf_stack(ptr noundef @.str.1, ptr noundef @__func__.H5O__mdci_decode, i32 noundef 104, i64 noundef %58, i64 noundef %59, ptr noundef @.str.3)
  br label %61

61:                                               ; preds = %57
  store i8 1, ptr %16, align 1
  %62 = load i8, ptr %16, align 1
  %63 = trunc i8 %62 to i1
  %64 = zext i1 %63 to i8
  store i8 %64, ptr %16, align 1
  br label %65

65:                                               ; preds = %61
  br label %66

66:                                               ; preds = %65
  store ptr null, ptr %15, align 8
  br label %291

67:                                               ; No predecessors!
  br label %68

68:                                               ; preds = %67
  br label %69

69:                                               ; preds = %68, %48
  %70 = call noalias ptr @H5FL_reg_malloc(ptr noundef @H5_H5O_mdci_t_reg_free_list)
  store ptr %70, ptr %13, align 8
  %71 = icmp eq ptr null, %70
  br i1 %71, label %72, label %87

72:                                               ; preds = %69
  br label %73

73:                                               ; preds = %72
  br label %74

74:                                               ; preds = %73
  br label %75

75:                                               ; preds = %74
  %76 = load i64, ptr @H5E_RESOURCE_g, align 8
  %77 = load i64, ptr @H5E_NOSPACE_g, align 8
  %78 = call i32 (ptr, ptr, i32, i64, i64, ptr, ...) @H5E_printf_stack(ptr noundef @.str.1, ptr noundef @__func__.H5O__mdci_decode, i32 noundef 109, i64 noundef %76, i64 noundef %77, ptr noundef @.str.4)
  br label %79

79:                                               ; preds = %75
  store i8 1, ptr %16, align 1
  %80 = load i8, ptr %16, align 1
  %81 = trunc i8 %80 to i1
  %82 = zext i1 %81 to i8
  store i8 %82, ptr %16, align 1
  br label %83

83:                                               ; preds = %79
  br label %84

84:                                               ; preds = %83
  store ptr null, ptr %15, align 8
  br label %291

85:                                               ; No predecessors!
  br label %86

86:                                               ; preds = %85
  br label %87

87:                                               ; preds = %86, %69
  %88 = load ptr, ptr %7, align 8
  %89 = call zeroext i8 @H5F_sizeof_addr(ptr noundef %88)
  %90 = zext i8 %89 to i32
  %91 = icmp ne i32 %90, 0
  br i1 %91, label %92, label %132

92:                                               ; preds = %87
  %93 = load ptr, ptr %12, align 8
  %94 = load ptr, ptr %14, align 8
  %95 = icmp ugt ptr %93, %94
  br i1 %95, label %117, label %96

96:                                               ; preds = %92
  %97 = load ptr, ptr %7, align 8
  %98 = call zeroext i8 @H5F_sizeof_addr(ptr noundef %97)
  %99 = zext i8 %98 to i64
  %100 = icmp ule i64 %99, 9223372036854775807
  br i1 %100, label %101, label %106

101:                                              ; preds = %96
  %102 = load ptr, ptr %7, align 8
  %103 = call zeroext i8 @H5F_sizeof_addr(ptr noundef %102)
  %104 = zext i8 %103 to i64
  %105 = icmp slt i64 %104, 0
  br i1 %105, label %117, label %106

106:                                              ; preds = %101, %96
  %107 = load ptr, ptr %7, align 8
  %108 = call zeroext i8 @H5F_sizeof_addr(ptr noundef %107)
  %109 = zext i8 %108 to i64
  %110 = load ptr, ptr %14, align 8
  %111 = load ptr, ptr %12, align 8
  %112 = ptrtoint ptr %110 to i64
  %113 = ptrtoint ptr %111 to i64
  %114 = sub i64 %112, %113
  %115 = add nsw i64 %114, 1
  %116 = icmp ugt i64 %109, %115
  br i1 %116, label %117, label %132

117:                                              ; preds = %106, %101, %92
  br label %118

118:                                              ; preds = %117
  br label %119

119:                                              ; preds = %118
  br label %120

120:                                              ; preds = %119
  %121 = load i64, ptr @H5E_OHDR_g, align 8
  %122 = load i64, ptr @H5E_OVERFLOW_g, align 8
  %123 = call i32 (ptr, ptr, i32, i64, i64, ptr, ...) @H5E_printf_stack(ptr noundef @.str.1, ptr noundef @__func__.H5O__mdci_decode, i32 noundef 112, i64 noundef %121, i64 noundef %122, ptr noundef @.str.2)
  br label %124

124:                                              ; preds = %120
  store i8 1, ptr %16, align 1
  %125 = load i8, ptr %16, align 1
  %126 = trunc i8 %125 to i1
  %127 = zext i1 %126 to i8
  store i8 %127, ptr %16, align 1
  br label %128

128:                                              ; preds = %124
  br label %129

129:                                              ; preds = %128
  store ptr null, ptr %15, align 8
  br label %291

130:                                              ; No predecessors!
  br label %131

131:                                              ; preds = %130
  br label %132

132:                                              ; preds = %131, %106, %87
  %133 = load ptr, ptr %7, align 8
  %134 = load ptr, ptr %13, align 8
  %135 = getelementptr inbounds %struct.H5O_mdci_t, ptr %134, i32 0, i32 0
  call void @H5F_addr_decode(ptr noundef %133, ptr noundef %12, ptr noundef %135)
  %136 = load ptr, ptr %7, align 8
  %137 = call zeroext i8 @H5F_sizeof_size(ptr noundef %136)
  %138 = zext i8 %137 to i32
  %139 = icmp ne i32 %138, 0
  br i1 %139, label %140, label %180

140:                                              ; preds = %132
  %141 = load ptr, ptr %12, align 8
  %142 = load ptr, ptr %14, align 8
  %143 = icmp ugt ptr %141, %142
  br i1 %143, label %165, label %144

144:                                              ; preds = %140
  %145 = load ptr, ptr %7, align 8
  %146 = call zeroext i8 @H5F_sizeof_size(ptr noundef %145)
  %147 = zext i8 %146 to i64
  %148 = icmp ule i64 %147, 9223372036854775807
  br i1 %148, label %149, label %154

149:                                              ; preds = %144
  %150 = load ptr, ptr %7, align 8
  %151 = call zeroext i8 @H5F_sizeof_size(ptr noundef %150)
  %152 = zext i8 %151 to i64
  %153 = icmp slt i64 %152, 0
  br i1 %153, label %165, label %154

154:                                              ; preds = %149, %144
  %155 = load ptr, ptr %7, align 8
  %156 = call zeroext i8 @H5F_sizeof_size(ptr noundef %155)
  %157 = zext i8 %156 to i64
  %158 = load ptr, ptr %14, align 8
  %159 = load ptr, ptr %12, align 8
  %160 = ptrtoint ptr %158 to i64
  %161 = ptrtoint ptr %159 to i64
  %162 = sub i64 %160, %161
  %163 = add nsw i64 %162, 1
  %164 = icmp ugt i64 %157, %163
  br i1 %164, label %165, label %180

165:                                              ; preds = %154, %149, %140
  br label %166

166:                                              ; preds = %165
  br label %167

167:                                              ; preds = %166
  br label %168

168:                                              ; preds = %167
  %169 = load i64, ptr @H5E_OHDR_g, align 8
  %170 = load i64, ptr @H5E_OVERFLOW_g, align 8
  %171 = call i32 (ptr, ptr, i32, i64, i64, ptr, ...) @H5E_printf_stack(ptr noundef @.str.1, ptr noundef @__func__.H5O__mdci_decode, i32 noundef 116, i64 noundef %169, i64 noundef %170, ptr noundef @.str.2)
  br label %172

172:                                              ; preds = %168
  store i8 1, ptr %16, align 1
  %173 = load i8, ptr %16, align 1
  %174 = trunc i8 %173 to i1
  %175 = zext i1 %174 to i8
  store i8 %175, ptr %16, align 1
  br label %176

176:                                              ; preds = %172
  br label %177

177:                                              ; preds = %176
  store ptr null, ptr %15, align 8
  br label %291

178:                                              ; No predecessors!
  br label %179

179:                                              ; preds = %178
  br label %180

180:                                              ; preds = %179, %154, %132
  br label %181

181:                                              ; preds = %180
  %182 = load ptr, ptr %7, align 8
  %183 = call zeroext i8 @H5F_sizeof_size(ptr noundef %182)
  %184 = zext i8 %183 to i32
  switch i32 %184, label %287 [
    i32 4, label %185
    i32 8, label %233
    i32 2, label %261
  ]

185:                                              ; preds = %181
  br label %186

186:                                              ; preds = %185
  %187 = load ptr, ptr %12, align 8
  %188 = load i8, ptr %187, align 1
  %189 = zext i8 %188 to i32
  %190 = and i32 %189, 255
  %191 = zext i32 %190 to i64
  %192 = load ptr, ptr %13, align 8
  %193 = getelementptr inbounds %struct.H5O_mdci_t, ptr %192, i32 0, i32 1
  store i64 %191, ptr %193, align 8
  %194 = load ptr, ptr %12, align 8
  %195 = getelementptr inbounds i8, ptr %194, i32 1
  store ptr %195, ptr %12, align 8
  %196 = load ptr, ptr %12, align 8
  %197 = load i8, ptr %196, align 1
  %198 = zext i8 %197 to i32
  %199 = and i32 %198, 255
  %200 = shl i32 %199, 8
  %201 = zext i32 %200 to i64
  %202 = load ptr, ptr %13, align 8
  %203 = getelementptr inbounds %struct.H5O_mdci_t, ptr %202, i32 0, i32 1
  %204 = load i64, ptr %203, align 8
  %205 = or i64 %204, %201
  store i64 %205, ptr %203, align 8
  %206 = load ptr, ptr %12, align 8
  %207 = getelementptr inbounds i8, ptr %206, i32 1
  store ptr %207, ptr %12, align 8
  %208 = load ptr, ptr %12, align 8
  %209 = load i8, ptr %208, align 1
  %210 = zext i8 %209 to i32
  %211 = and i32 %210, 255
  %212 = shl i32 %211, 16
  %213 = zext i32 %212 to i64
  %214 = load ptr, ptr %13, align 8
  %215 = getelementptr inbounds %struct.H5O_mdci_t, ptr %214, i32 0, i32 1
  %216 = load i64, ptr %215, align 8
  %217 = or i64 %216, %213
  store i64 %217, ptr %215, align 8
  %218 = load ptr, ptr %12, align 8
  %219 = getelementptr inbounds i8, ptr %218, i32 1
  store ptr %219, ptr %12, align 8
  %220 = load ptr, ptr %12, align 8
  %221 = load i8, ptr %220, align 1
  %222 = zext i8 %221 to i32
  %223 = and i32 %222, 255
  %224 = shl i32 %223, 24
  %225 = zext i32 %224 to i64
  %226 = load ptr, ptr %13, align 8
  %227 = getelementptr inbounds %struct.H5O_mdci_t, ptr %226, i32 0, i32 1
  %228 = load i64, ptr %227, align 8
  %229 = or i64 %228, %225
  store i64 %229, ptr %227, align 8
  %230 = load ptr, ptr %12, align 8
  %231 = getelementptr inbounds i8, ptr %230, i32 1
  store ptr %231, ptr %12, align 8
  br label %232

232:                                              ; preds = %186
  br label %288

233:                                              ; preds = %181
  br label %234

234:                                              ; preds = %233
  %235 = load ptr, ptr %13, align 8
  %236 = getelementptr inbounds %struct.H5O_mdci_t, ptr %235, i32 0, i32 1
  store i64 0, ptr %236, align 8
  %237 = load ptr, ptr %12, align 8
  %238 = getelementptr inbounds i8, ptr %237, i64 8
  store ptr %238, ptr %12, align 8
  store i64 0, ptr %17, align 8
  br label %239

239:                                              ; preds = %254, %234
  %240 = load i64, ptr %17, align 8
  %241 = icmp ult i64 %240, 8
  br i1 %241, label %242, label %257

242:                                              ; preds = %239
  %243 = load ptr, ptr %13, align 8
  %244 = getelementptr inbounds %struct.H5O_mdci_t, ptr %243, i32 0, i32 1
  %245 = load i64, ptr %244, align 8
  %246 = shl i64 %245, 8
  %247 = load ptr, ptr %12, align 8
  %248 = getelementptr inbounds i8, ptr %247, i32 -1
  store ptr %248, ptr %12, align 8
  %249 = load i8, ptr %248, align 1
  %250 = zext i8 %249 to i64
  %251 = or i64 %246, %250
  %252 = load ptr, ptr %13, align 8
  %253 = getelementptr inbounds %struct.H5O_mdci_t, ptr %252, i32 0, i32 1
  store i64 %251, ptr %253, align 8
  br label %254

254:                                              ; preds = %242
  %255 = load i64, ptr %17, align 8
  %256 = add i64 %255, 1
  store i64 %256, ptr %17, align 8
  br label %239

257:                                              ; preds = %239
  %258 = load ptr, ptr %12, align 8
  %259 = getelementptr inbounds i8, ptr %258, i64 8
  store ptr %259, ptr %12, align 8
  br label %260

260:                                              ; preds = %257
  br label %288

261:                                              ; preds = %181
  br label %262

262:                                              ; preds = %261
  %263 = load ptr, ptr %12, align 8
  %264 = load i8, ptr %263, align 1
  %265 = zext i8 %264 to i32
  %266 = and i32 %265, 255
  %267 = trunc i32 %266 to i16
  %268 = zext i16 %267 to i64
  %269 = load ptr, ptr %13, align 8
  %270 = getelementptr inbounds %struct.H5O_mdci_t, ptr %269, i32 0, i32 1
  store i64 %268, ptr %270, align 8
  %271 = load ptr, ptr %12, align 8
  %272 = getelementptr inbounds i8, ptr %271, i32 1
  store ptr %272, ptr %12, align 8
  %273 = load ptr, ptr %12, align 8
  %274 = load i8, ptr %273, align 1
  %275 = zext i8 %274 to i32
  %276 = and i32 %275, 255
  %277 = shl i32 %276, 8
  %278 = trunc i32 %277 to i16
  %279 = zext i16 %278 to i64
  %280 = load ptr, ptr %13, align 8
  %281 = getelementptr inbounds %struct.H5O_mdci_t, ptr %280, i32 0, i32 1
  %282 = load i64, ptr %281, align 8
  %283 = or i64 %282, %279
  store i64 %283, ptr %281, align 8
  %284 = load ptr, ptr %12, align 8
  %285 = getelementptr inbounds i8, ptr %284, i32 1
  store ptr %285, ptr %12, align 8
  br label %286

286:                                              ; preds = %262
  br label %288

287:                                              ; preds = %181
  br label %288

288:                                              ; preds = %287, %286, %260, %232
  br label %289

289:                                              ; preds = %288
  %290 = load ptr, ptr %13, align 8
  store ptr %290, ptr %15, align 8
  br label %291

291:                                              ; preds = %289, %177, %129, %84, %66, %45
  %292 = load ptr, ptr %15, align 8
  %293 = icmp ne ptr %292, null
  br i1 %293, label %300, label %294

294:                                              ; preds = %291
  %295 = load ptr, ptr %13, align 8
  %296 = icmp ne ptr %295, null
  br i1 %296, label %297, label %300

297:                                              ; preds = %294
  %298 = load ptr, ptr %13, align 8
  %299 = call ptr @H5FL_reg_free(ptr noundef @H5_H5O_mdci_t_reg_free_list, ptr noundef %298)
  br label %300

300:                                              ; preds = %297, %294, %291
  %301 = load ptr, ptr %15, align 8
  ret ptr %301
}