; Function Attrs: nounwind uwtable
define internal ptr @H5O__mdci_decode(ptr noundef %0, ptr nocapture readnone %1, i32 %2, ptr nocapture readnone %3, i64 noundef %4, ptr noundef %5) #0 {
  %7 = alloca ptr, align 8
  %8 = getelementptr i8, ptr %5, i64 %4
  %.ptr53 = getelementptr i8, ptr %8, i64 -1
  %9 = icmp ult ptr %.ptr53, %5
  br i1 %9, label %15, label %10

10:                                               ; preds = %6
  %11 = ptrtoint ptr %.ptr53 to i64
  %12 = ptrtoint ptr %5 to i64
  %13 = sub i64 %11, %12
  %14 = icmp eq i64 %13, -1
  br i1 %14, label %15, label %19

15:                                               ; preds = %6, %10
  %16 = load i64, ptr @H5E_OHDR_g, align 8
  %17 = load i64, ptr @H5E_OVERFLOW_g, align 8
  %18 = tail call i32 (ptr, ptr, i32, i64, i64, ptr, ...) @H5E_printf_stack(ptr noundef nonnull @.str.1, ptr noundef nonnull @__func__.H5O__mdci_decode, i32 noundef 102, i64 noundef %16, i64 noundef %17, ptr noundef nonnull @.str.2) #5
  br label %.thread

19:                                               ; preds = %10
  %20 = getelementptr inbounds i8, ptr %5, i64 1
  store ptr %20, ptr %7, align 8
  %21 = load i8, ptr %5, align 1
  %.not = icmp eq i8 %21, 0
  br i1 %.not, label %26, label %22

22:                                               ; preds = %19
  %23 = load i64, ptr @H5E_OHDR_g, align 8
  %24 = load i64, ptr @H5E_CANTLOAD_g, align 8
  %25 = tail call i32 (ptr, ptr, i32, i64, i64, ptr, ...) @H5E_printf_stack(ptr noundef nonnull @.str.1, ptr noundef nonnull @__func__.H5O__mdci_decode, i32 noundef 104, i64 noundef %23, i64 noundef %24, ptr noundef nonnull @.str.3) #5
  br label %.thread

26:                                               ; preds = %19
  %27 = tail call noalias ptr @H5FL_reg_malloc(ptr noundef nonnull @H5_H5O_mdci_t_reg_free_list) #5
  %28 = icmp eq ptr %27, null
  br i1 %28, label %29, label %33

29:                                               ; preds = %26
  %30 = load i64, ptr @H5E_RESOURCE_g, align 8
  %31 = load i64, ptr @H5E_NOSPACE_g, align 8
  %32 = tail call i32 (ptr, ptr, i32, i64, i64, ptr, ...) @H5E_printf_stack(ptr noundef nonnull @.str.1, ptr noundef nonnull @__func__.H5O__mdci_decode, i32 noundef 109, i64 noundef %30, i64 noundef %31, ptr noundef nonnull @.str.4) #5
  br label %.thread

33:                                               ; preds = %26
  %34 = tail call zeroext i8 @H5F_sizeof_addr(ptr noundef %0) #5
  %.not44 = icmp eq i8 %34, 0
  br i1 %.not44, label %50, label %35

35:                                               ; preds = %33
  %36 = icmp slt i64 %4, 2
  br i1 %36, label %46, label %37

37:                                               ; preds = %35
  %38 = tail call zeroext i8 @H5F_sizeof_addr(ptr noundef %0) #5
  %39 = tail call zeroext i8 @H5F_sizeof_addr(ptr noundef %0) #5
  %40 = tail call zeroext i8 @H5F_sizeof_addr(ptr noundef %0) #5
  %41 = zext i8 %40 to i64
  %42 = ptrtoint ptr %20 to i64
  %43 = add i64 %11, 1
  %44 = sub i64 %43, %42
  %45 = icmp ult i64 %44, %41
  br i1 %45, label %46, label %50

46:                                               ; preds = %35, %37
  %47 = load i64, ptr @H5E_OHDR_g, align 8
  %48 = load i64, ptr @H5E_OVERFLOW_g, align 8
  %49 = tail call i32 (ptr, ptr, i32, i64, i64, ptr, ...) @H5E_printf_stack(ptr noundef nonnull @.str.1, ptr noundef nonnull @__func__.H5O__mdci_decode, i32 noundef 112, i64 noundef %47, i64 noundef %48, ptr noundef nonnull @.str.2) #5
  br label %114

50:                                               ; preds = %37, %33
  call void @H5F_addr_decode(ptr noundef %0, ptr noundef nonnull %7, ptr noundef nonnull %27) #5
  %51 = call zeroext i8 @H5F_sizeof_size(ptr noundef %0) #5
  %.not45 = icmp eq i8 %51, 0
  br i1 %.not45, label %69, label %52

52:                                               ; preds = %50
  %53 = load ptr, ptr %7, align 8
  %54 = icmp ugt ptr %53, %.ptr53
  br i1 %54, label %65, label %55

55:                                               ; preds = %52
  %56 = call zeroext i8 @H5F_sizeof_size(ptr noundef %0) #5
  %57 = call zeroext i8 @H5F_sizeof_size(ptr noundef %0) #5
  %58 = call zeroext i8 @H5F_sizeof_size(ptr noundef %0) #5
  %59 = zext i8 %58 to i64
  %60 = load ptr, ptr %7, align 8
  %61 = ptrtoint ptr %60 to i64
  %62 = add i64 %11, 1
  %63 = sub i64 %62, %61
  %64 = icmp ult i64 %63, %59
  br i1 %64, label %65, label %69

65:                                               ; preds = %52, %55
  %66 = load i64, ptr @H5E_OHDR_g, align 8
  %67 = load i64, ptr @H5E_OVERFLOW_g, align 8
  %68 = call i32 (ptr, ptr, i32, i64, i64, ptr, ...) @H5E_printf_stack(ptr noundef nonnull @.str.1, ptr noundef nonnull @__func__.H5O__mdci_decode, i32 noundef 116, i64 noundef %66, i64 noundef %67, ptr noundef nonnull @.str.2) #5
  br label %114

69:                                               ; preds = %50, %55
  %70 = call zeroext i8 @H5F_sizeof_size(ptr noundef %0) #5
  switch i8 %70, label %.thread [
    i8 4, label %71
    i8 8, label %91
    i8 2, label %104
  ]

71:                                               ; preds = %69
  %72 = load ptr, ptr %7, align 8
  %73 = load i8, ptr %72, align 1
  %74 = zext i8 %73 to i64
  %75 = getelementptr inbounds i8, ptr %27, i64 8
  store i64 %74, ptr %75, align 8
  %76 = getelementptr inbounds i8, ptr %72, i64 1
  store ptr %76, ptr %7, align 8
  %77 = load i8, ptr %76, align 1
  %78 = zext i8 %77 to i64
  %79 = shl nuw nsw i64 %78, 8
  %80 = or disjoint i64 %79, %74
  store i64 %80, ptr %75, align 8
  %81 = getelementptr inbounds i8, ptr %72, i64 2
  store ptr %81, ptr %7, align 8
  %82 = load i8, ptr %81, align 1
  %83 = zext i8 %82 to i64
  %84 = shl nuw nsw i64 %83, 16
  %85 = or disjoint i64 %84, %80
  store i64 %85, ptr %75, align 8
  %86 = getelementptr inbounds i8, ptr %72, i64 3
  store ptr %86, ptr %7, align 8
  %87 = load i8, ptr %86, align 1
  %88 = zext i8 %87 to i64
  %89 = shl nuw nsw i64 %88, 24
  %90 = or disjoint i64 %89, %85
  store i64 %90, ptr %75, align 8
  br label %.thread

91:                                               ; preds = %69
  %92 = getelementptr inbounds i8, ptr %27, i64 8
  store i64 0, ptr %92, align 8
  %93 = load ptr, ptr %7, align 8
  %94 = getelementptr inbounds i8, ptr %93, i64 8
  br label %95

95:                                               ; preds = %91, %95
  %.052 = phi i64 [ 0, %91 ], [ %103, %95 ]
  %96 = phi i64 [ 0, %91 ], [ %102, %95 ]
  %97 = phi ptr [ %94, %91 ], [ %99, %95 ]
  %98 = shl i64 %96, 8
  %99 = getelementptr inbounds i8, ptr %97, i64 -1
  store ptr %99, ptr %7, align 8
  %100 = load i8, ptr %99, align 1
  %101 = zext i8 %100 to i64
  %102 = or disjoint i64 %98, %101
  store i64 %102, ptr %92, align 8
  %103 = add nuw nsw i64 %.052, 1
  %exitcond.not = icmp eq i64 %103, 8
  br i1 %exitcond.not, label %.thread, label %95

104:                                              ; preds = %69
  %105 = load ptr, ptr %7, align 8
  %106 = load i8, ptr %105, align 1
  %107 = zext i8 %106 to i64
  %108 = getelementptr inbounds i8, ptr %27, i64 8
  store i64 %107, ptr %108, align 8
  %109 = getelementptr inbounds i8, ptr %105, i64 1
  store ptr %109, ptr %7, align 8
  %110 = load i8, ptr %109, align 1
  %111 = zext i8 %110 to i64
  %112 = shl nuw nsw i64 %111, 8
  %113 = or disjoint i64 %112, %107
  store i64 %113, ptr %108, align 8
  br label %.thread

114:                                              ; preds = %46, %65
  %115 = call ptr @H5FL_reg_free(ptr noundef nonnull @H5_H5O_mdci_t_reg_free_list, ptr noundef nonnull %27) #5
  br label %.thread

.thread:                                          ; preds = %95, %29, %22, %15, %69, %104, %71, %114
  %.03949 = phi ptr [ null, %114 ], [ %27, %69 ], [ %27, %104 ], [ %27, %71 ], [ null, %29 ], [ null, %22 ], [ null, %15 ], [ %27, %95 ]
  ret ptr %.03949
}